; Function Attrs: mustprogress uwtable
define noundef i64 @_ZNK8QuantLib17KlugeExtOUProcess7factorsEv(ptr nocapture noundef nonnull readonly align 8 dereferenceable(176) %this) unnamed_addr #6 align 2 {
entry:
  %klugeProcess_ = getelementptr inbounds nuw i8, ptr %this, i64 144
  %0 = load ptr, ptr %klugeProcess_, align 8, !tbaa !48
  %cmp.not.i = icmp eq ptr %0, null
  br i1 %cmp.not.i, label %cond.false.i, label %_ZNK5boost10shared_ptrIN8QuantLib21ExtOUWithJumpsProcessEEptEv.exit, !prof !60

cond.false.i:                                     ; preds = %entry
  tail call void @_ZN5boost16assertion_failedEPKcS1_S1_l(ptr noundef nonnull @.str.6, ptr noundef nonnull @__PRETTY_FUNCTION__._ZNK5boost10shared_ptrIN8QuantLib21ExtOUWithJumpsProcessEEptEv, ptr noundef nonnull @.str.7, i64 noundef 784)
  %.pre.i = load ptr, ptr %klugeProcess_, align 8, !tbaa !48
  br label %_ZNK5boost10shared_ptrIN8QuantLib21ExtOUWithJumpsProcessEEptEv.exit

_ZNK5boost10shared_ptrIN8QuantLib21ExtOUWithJumpsProcessEEptEv.exit: ; preds = %entry, %cond.false.i
  %1 = phi ptr [ %0, %entry ], [ %.pre.i, %cond.false.i ]
  %vtable = load ptr, ptr %1, align 8, !tbaa !28
  %vfn = getelementptr inbounds i8, ptr %vtable, i64 40
  %2 = load ptr, ptr %vfn, align 8
  %call2 = tail call noundef i64 %2(ptr noundef nonnull align 8 dereferenceable(240) %1)
  %add = add i64 %call2, 1
  ret i64 %add
}